#include <math.h>
#include <stdio.h>
#include <stdlib.h>
#include <string.h>

int main()
{
    int a[20000],b[20000];
    int N;
    scanf("%d",&N);
    int i,k;
    for(i=2;i<=N;i++)
    {
        b[i-2]=i;
        int m;
        m = (int)(i/2);
        for(k=2;k<=m;k++)
        {
            if(i%k==0)
            break;
        }
        if(k==m+1)
        {
            a[i-2]=1;
        }
        else
        {
            a[i-2]=0;
        }
    }
    for(i=2;i<=N;i++)
    {
        if((a[i-2]==a[i])&&(a[i-2]==1))
        {
            printf("%d %d\n",b[i-2],b[i]);
        }
    }
    if(N<=4)
    {
        printf("empty");
    }
    getchar();
    getchar();
    getchar();
    getchar();
    getchar();
    getchar();
}
