; ModuleID = '60/657.c'
source_filename = "60/657.c"
target datalayout = "e-m:e-p270:32:32-p271:32:32-p272:64:64-i64:64-f80:128-n8:16:32:64-S128"
target triple = "x86_64-pc-linux-gnu"

@.str = private unnamed_addr constant [3 x i8] c"%d\00", align 1
@.str.1 = private unnamed_addr constant [7 x i8] c"%d %d\0A\00", align 1
@.str.2 = private unnamed_addr constant [6 x i8] c"empty\00", align 1

; Function Attrs: noinline nounwind uwtable
define dso_local i32 @main() #0 {
  %1 = alloca i32, align 4
  %2 = alloca [20000 x i32], align 16
  %3 = alloca [20000 x i32], align 16
  %4 = alloca i32, align 4
  %5 = alloca i32, align 4
  %6 = alloca i32, align 4
  %7 = alloca i32, align 4
  store i32 0, i32* %1, align 4
  %8 = call i32 (i8*, ...) @__isoc99_scanf(i8* getelementptr inbounds ([3 x i8], [3 x i8]* @.str, i64 0, i64 0), i32* %4)
  store i32 2, i32* %5, align 4
  br label %9

9:                                                ; preds = %51, %0
  %10 = load i32, i32* %5, align 4
  %11 = load i32, i32* %4, align 4
  %12 = icmp sle i32 %10, %11
  br i1 %12, label %13, label %54

13:                                               ; preds = %9
  %14 = load i32, i32* %5, align 4
  %15 = load i32, i32* %5, align 4
  %16 = sub nsw i32 %15, 2
  %17 = sext i32 %16 to i64
  %18 = getelementptr inbounds [20000 x i32], [20000 x i32]* %3, i64 0, i64 %17
  store i32 %14, i32* %18, align 4
  %19 = load i32, i32* %5, align 4
  %20 = sdiv i32 %19, 2
  store i32 %20, i32* %7, align 4
  store i32 2, i32* %6, align 4
  br label %21

21:                                               ; preds = %32, %13
  %22 = load i32, i32* %6, align 4
  %23 = load i32, i32* %7, align 4
  %24 = icmp sle i32 %22, %23
  br i1 %24, label %25, label %35

25:                                               ; preds = %21
  %26 = load i32, i32* %5, align 4
  %27 = load i32, i32* %6, align 4
  %28 = srem i32 %26, %27
  %29 = icmp eq i32 %28, 0
  br i1 %29, label %30, label %31

30:                                               ; preds = %25
  br label %35

31:                                               ; preds = %25
  br label %32

32:                                               ; preds = %31
  %33 = load i32, i32* %6, align 4
  %34 = add nsw i32 %33, 1
  store i32 %34, i32* %6, align 4
  br label %21

35:                                               ; preds = %30, %21
  %36 = load i32, i32* %6, align 4
  %37 = load i32, i32* %7, align 4
  %38 = add nsw i32 %37, 1
  %39 = icmp eq i32 %36, %38
  br i1 %39, label %40, label %45

40:                                               ; preds = %35
  %41 = load i32, i32* %5, align 4
  %42 = sub nsw i32 %41, 2
  %43 = sext i32 %42 to i64
  %44 = getelementptr inbounds [20000 x i32], [20000 x i32]* %2, i64 0, i64 %43
  store i32 1, i32* %44, align 4
  br label %50

45:                                               ; preds = %35
  %46 = load i32, i32* %5, align 4
  %47 = sub nsw i32 %46, 2
  %48 = sext i32 %47 to i64
  %49 = getelementptr inbounds [20000 x i32], [20000 x i32]* %2, i64 0, i64 %48
  store i32 0, i32* %49, align 4
  br label %50

50:                                               ; preds = %45, %40
  br label %51

51:                                               ; preds = %50
  %52 = load i32, i32* %5, align 4
  %53 = add nsw i32 %52, 1
  store i32 %53, i32* %5, align 4
  br label %9

54:                                               ; preds = %9
  store i32 2, i32* %5, align 4
  br label %55

55:                                               ; preds = %89, %54
  %56 = load i32, i32* %5, align 4
  %57 = load i32, i32* %4, align 4
  %58 = icmp sle i32 %56, %57
  br i1 %58, label %59, label %92

59:                                               ; preds = %55
  %60 = load i32, i32* %5, align 4
  %61 = sub nsw i32 %60, 2
  %62 = sext i32 %61 to i64
  %63 = getelementptr inbounds [20000 x i32], [20000 x i32]* %2, i64 0, i64 %62
  %64 = load i32, i32* %63, align 4
  %65 = load i32, i32* %5, align 4
  %66 = sext i32 %65 to i64
  %67 = getelementptr inbounds [20000 x i32], [20000 x i32]* %2, i64 0, i64 %66
  %68 = load i32, i32* %67, align 4
  %69 = icmp eq i32 %64, %68
  br i1 %69, label %70, label %88

70:                                               ; preds = %59
  %71 = load i32, i32* %5, align 4
  %72 = sub nsw i32 %71, 2
  %73 = sext i32 %72 to i64
  %74 = getelementptr inbounds [20000 x i32], [20000 x i32]* %2, i64 0, i64 %73
  %75 = load i32, i32* %74, align 4
  %76 = icmp eq i32 %75, 1
  br i1 %76, label %77, label %88

77:                                               ; preds = %70
  %78 = load i32, i32* %5, align 4
  %79 = sub nsw i32 %78, 2
  %80 = sext i32 %79 to i64
  %81 = getelementptr inbounds [20000 x i32], [20000 x i32]* %3, i64 0, i64 %80
  %82 = load i32, i32* %81, align 4
  %83 = load i32, i32* %5, align 4
  %84 = sext i32 %83 to i64
  %85 = getelementptr inbounds [20000 x i32], [20000 x i32]* %3, i64 0, i64 %84
  %86 = load i32, i32* %85, align 4
  %87 = call i32 (i8*, ...) @printf(i8* getelementptr inbounds ([7 x i8], [7 x i8]* @.str.1, i64 0, i64 0), i32 %82, i32 %86)
  br label %88

88:                                               ; preds = %77, %70, %59
  br label %89

89:                                               ; preds = %88
  %90 = load i32, i32* %5, align 4
  %91 = add nsw i32 %90, 1
  store i32 %91, i32* %5, align 4
  br label %55

92:                                               ; preds = %55
  %93 = load i32, i32* %4, align 4
  %94 = icmp sle i32 %93, 4
  br i1 %94, label %95, label %97

95:                                               ; preds = %92
  %96 = call i32 (i8*, ...) @printf(i8* getelementptr inbounds ([6 x i8], [6 x i8]* @.str.2, i64 0, i64 0))
  br label %97

97:                                               ; preds = %95, %92
  %98 = call i32 @getchar()
  %99 = call i32 @getchar()
  %100 = call i32 @getchar()
  %101 = call i32 @getchar()
  %102 = call i32 @getchar()
  %103 = call i32 @getchar()
  %104 = load i32, i32* %1, align 4
  ret i32 %104
}

declare dso_local i32 @__isoc99_scanf(i8*, ...) #1

declare dso_local i32 @printf(i8*, ...) #1

declare dso_local i32 @getchar() #1


!llvm.module.flags = !{!0}
!llvm.ident = !{!1}

!0 = !{i32 1, !"wchar_size", i32 4}
!1 = !{!"clang version 10.0.0-4ubuntu1 "}
